(dp0
S'isShellCmd'
p1
I01
sS'cmd'
p2
S'"/apps/source/python-2.7.3/Python-2.7.3/bin/python" "/PHShome/xd010/libexec/vcfCmdlineSwapper.py" "/PHShome/xd010/bin/configManta.py --normalBam=/PHShome/xd010/share/demo/manta/data/HCC1954.NORMAL.30x.compare.COST16011_region.bam --tumorBam=/PHShome/xd010/share/demo/manta/data/G15512.HCC1954.1.COST16011_region.bam --referenceFasta=/PHShome/xd010/share/demo/manta/data/Homo_sapiens_assembly19.COST16011_region.fa --region=8:107652000-107655000 --region=11:94974000-94989000 --candidateBins=4 --exome --runDir=MantaDemoAnalysis" < "/data/neurogen/pipeline/DNAseq/libs/MantaDemoAnalysis/workspace/svHyGen/candidateSV.0000.vcf" > "/data/neurogen/pipeline/DNAseq/libs/MantaDemoAnalysis/workspace/svHyGen/candidateSV.0000.vcf.reheader.tmp" && mv "/data/neurogen/pipeline/DNAseq/libs/MantaDemoAnalysis/workspace/svHyGen/candidateSV.0000.vcf.reheader.tmp" "/data/neurogen/pipeline/DNAseq/libs/MantaDemoAnalysis/workspace/svHyGen/candidateSV.0000.vcf"'
p3
sS'errFile'
p4
S'/data/neurogen/pipeline/DNAseq/libs/MantaDemoAnalysis/workspace/pyflow.data/logs/pyflow_tasks_stderr_log.txt'
p5
sS'outFile'
p6
S'/data/neurogen/pipeline/DNAseq/libs/MantaDemoAnalysis/workspace/pyflow.data/logs/pyflow_tasks_stdout_log.txt'
p7
sS'env'
p8
NsS'nCores'
p9
I1
sS'cwd'
p10
S''
p11
s.