(dp0
S'isShellCmd'
p1
I00
sS'cmd'
p2
(lp3
S'/PHShome/xd010/libexec/GetAlignmentStats'
p4
aS'--ref'
p5
aS'/PHShome/xd010/share/demo/manta/data/Homo_sapiens_assembly19.COST16011_region.fa'
p6
aS'--output-file'
p7
aS'/data/neurogen/pipeline/DNAseq/libs/MantaDemoAnalysis/workspace/alignmentStats.xml.tmpdir/alignmentStats.xml.001.xml'
p8
aS'--align-file'
p9
aS'/PHShome/xd010/share/demo/manta/data/G15512.HCC1954.1.COST16011_region.bam'
p10
asS'errFile'
p11
S'/data/neurogen/pipeline/DNAseq/libs/MantaDemoAnalysis/workspace/pyflow.data/logs/pyflow_tasks_stderr_log.txt'
p12
sS'outFile'
p13
S'/data/neurogen/pipeline/DNAseq/libs/MantaDemoAnalysis/workspace/pyflow.data/logs/pyflow_tasks_stdout_log.txt'
p14
sS'env'
p15
NsS'nCores'
p16
I1
sS'cwd'
p17
S''
p18
s.