(dp0
S'isShellCmd'
p1
I00
sS'cmd'
p2
(lp3
S'/PHShome/xd010/libexec/EstimateSVLoci'
p4
aS'--output-file'
p5
aS'/data/neurogen/pipeline/DNAseq/libs/MantaDemoAnalysis/workspace/svLocusGraph.bin.tmpdir/svLocusGraph.chromId_000_8-107652000-107655000_0000_to_chromId_001_11-94974000-94989000_0000.bin'
p6
aS'--align-stats'
p7
aS'/data/neurogen/pipeline/DNAseq/libs/MantaDemoAnalysis/workspace/alignmentStats.xml'
p8
aS'--region'
p9
aS'8:107652000-107655000'
p10
ag9
aS'11:94974000-94989000'
p11
aS'--min-candidate-sv-size'
p12
aS'8'
p13
aS'--min-edge-observations'
p14
aS'3'
p15
aS'--ref'
p16
aS'/PHShome/xd010/share/demo/manta/data/Homo_sapiens_assembly19.COST16011_region.fa'
p17
aS'--align-file'
p18
aS'/PHShome/xd010/share/demo/manta/data/HCC1954.NORMAL.30x.compare.COST16011_region.bam'
p19
aS'--tumor-align-file'
p20
aS'/PHShome/xd010/share/demo/manta/data/G15512.HCC1954.1.COST16011_region.bam'
p21
asS'errFile'
p22
S'/data/neurogen/pipeline/DNAseq/libs/MantaDemoAnalysis/workspace/pyflow.data/logs/pyflow_tasks_stderr_log.txt'
p23
sS'outFile'
p24
S'/data/neurogen/pipeline/DNAseq/libs/MantaDemoAnalysis/workspace/pyflow.data/logs/pyflow_tasks_stdout_log.txt'
p25
sS'env'
p26
NsS'nCores'
p27
I1
sS'cwd'
p28
S''
p29
s.