(dp0
S'isShellCmd'
p1
I00
sS'cmd'
p2
(lp3
S'/PHShome/xd010/libexec/MergeSVLoci'
p4
aS'--output-file'
p5
aS'/data/neurogen/pipeline/DNAseq/libs/MantaDemoAnalysis/workspace/svLocusGraph.bin'
p6
aS'--graph-file-list'
p7
aS'/data/neurogen/pipeline/DNAseq/libs/MantaDemoAnalysis/workspace/svLocusGraph.bin.tmpdir/list.svLocusGraph.txt'
p8
asS'errFile'
p9
S'/data/neurogen/pipeline/DNAseq/libs/MantaDemoAnalysis/workspace/pyflow.data/logs/pyflow_tasks_stderr_log.txt'
p10
sS'outFile'
p11
S'/data/neurogen/pipeline/DNAseq/libs/MantaDemoAnalysis/workspace/pyflow.data/logs/pyflow_tasks_stdout_log.txt'
p12
sS'env'
p13
NsS'nCores'
p14
I1
sS'cwd'
p15
S''
p16
s.