(dp0
S'isShellCmd'
p1
I00
sS'cmd'
p2
(lp3
S'/PHShome/xd010/libexec/GenerateSVCandidates'
p4
aS'--align-stats'
p5
aS'/data/neurogen/pipeline/DNAseq/libs/MantaDemoAnalysis/workspace/alignmentStats.xml'
p6
aS'--graph-file'
p7
aS'/data/neurogen/pipeline/DNAseq/libs/MantaDemoAnalysis/workspace/svLocusGraph.bin'
p8
aS'--bin-index'
p9
aS'2'
p10
aS'--bin-count'
p11
aS'4'
p12
aS'--max-edge-count'
p13
aS'10'
p14
aS'--min-candidate-sv-size'
p15
aS'8'
p16
aS'--min-candidate-spanning-count'
p17
aS'3'
p18
aS'--min-scored-sv-size'
p19
aS'50'
p20
aS'--ref'
p21
aS'/PHShome/xd010/share/demo/manta/data/Homo_sapiens_assembly19.COST16011_region.fa'
p22
aS'--candidate-output-file'
p23
aS'/data/neurogen/pipeline/DNAseq/libs/MantaDemoAnalysis/workspace/svHyGen/candidateSV.0002.vcf'
p24
aS'--diploid-output-file'
p25
aS'/data/neurogen/pipeline/DNAseq/libs/MantaDemoAnalysis/workspace/svHyGen/diploidSV.0002.vcf'
p26
aS'--min-qual-score'
p27
aS'10'
p28
aS'--min-pass-qual-score'
p29
aS'20'
p30
aS'--min-pass-gt-score'
p31
aS'15'
p32
aS'--somatic-output-file'
p33
aS'/data/neurogen/pipeline/DNAseq/libs/MantaDemoAnalysis/workspace/svHyGen/somaticSV.0002.vcf'
p34
aS'--min-somatic-score'
p35
aS'10'
p36
aS'--min-pass-somatic-score'
p37
aS'30'
p38
aS'--edge-runtime-log'
p39
aS'/data/neurogen/pipeline/DNAseq/libs/MantaDemoAnalysis/workspace/svHyGen/edgeRuntimeLog.0002.txt'
p40
aS'--edge-stats-log'
p41
aS'/data/neurogen/pipeline/DNAseq/libs/MantaDemoAnalysis/workspace/svHyGen/edgeStats.0002.xml'
p42
aS'--align-file'
p43
aS'/PHShome/xd010/share/demo/manta/data/HCC1954.NORMAL.30x.compare.COST16011_region.bam'
p44
aS'--tumor-align-file'
p45
aS'/PHShome/xd010/share/demo/manta/data/G15512.HCC1954.1.COST16011_region.bam'
p46
asS'errFile'
p47
S'/data/neurogen/pipeline/DNAseq/libs/MantaDemoAnalysis/workspace/pyflow.data/logs/pyflow_tasks_stderr_log.txt'
p48
sS'outFile'
p49
S'/data/neurogen/pipeline/DNAseq/libs/MantaDemoAnalysis/workspace/pyflow.data/logs/pyflow_tasks_stdout_log.txt'
p50
sS'env'
p51
NsS'nCores'
p52
I1
sS'cwd'
p53
S''
p54
s.