(dp0
S'isShellCmd'
p1
I00
sS'cmd'
p2
(lp3
S'/apps/source/python-2.7.3/Python-2.7.3/bin/python'
p4
aS'/PHShome/xd010/libexec/sortEdgeLogs.py'
p5
aS'-f'
p6
aS'/data/neurogen/pipeline/DNAseq/libs/MantaDemoAnalysis/workspace/svHyGen/list.edgeRuntimeLog.txt'
p7
aS'-o'
p8
aS'/data/neurogen/pipeline/DNAseq/libs/MantaDemoAnalysis/workspace/edgeRuntimeLog.txt'
p9
asS'errFile'
p10
S'/data/neurogen/pipeline/DNAseq/libs/MantaDemoAnalysis/workspace/pyflow.data/logs/pyflow_tasks_stderr_log.txt'
p11
sS'outFile'
p12
S'/data/neurogen/pipeline/DNAseq/libs/MantaDemoAnalysis/workspace/pyflow.data/logs/pyflow_tasks_stdout_log.txt'
p13
sS'env'
p14
NsS'nCores'
p15
I1
sS'cwd'
p16
S''
p17
s.