(dp0
S'manta'
p1
(dp2
S'mantaMergeStatsBin'
p3
S'/PHShome/xd010/libexec/MergeAlignmentStats'
p4
sS'isExome'
p5
I01
sS'existingAlignStatsFile'
p6
NsS'referenceFasta'
p7
S'/PHShome/xd010/share/demo/manta/data/Homo_sapiens_assembly19.COST16011_region.fa'
p8
sS'hyGenSGEMemMb'
p9
I4096
sS'minPassSomaticScore'
p10
S'30'
p11
sS'tumorBamList'
p12
(lp13
S'/PHShome/xd010/share/demo/manta/data/G15512.HCC1954.1.COST16011_region.bam'
p14
asS'workflowScriptName'
p15
S'runWorkflow.py'
p16
sS'normalBamList'
p17
(lp18
S'/PHShome/xd010/share/demo/manta/data/HCC1954.NORMAL.30x.compare.COST16011_region.bam'
p19
asS'estimateMemMb'
p20
F1536.0
sS'mantaSortVcf'
p21
S'/PHShome/xd010/libexec/sortVcf.py'
p22
sS'scanSizeMb'
p23
I12
sS'libexecDir'
p24
S'/PHShome/xd010/libexec'
p25
sS'isRetainTempFiles'
p26
I00
sS'isRNA'
p27
I00
sS'mantaSortEdgeLogs'
p28
S'/PHShome/xd010/libexec/sortEdgeLogs.py'
p29
sS'tabixBin'
p30
S'/PHShome/xd010/libexec/tabix'
p31
sS'rnaMinCandidateVariantSize'
p32
S'1000'
p33
sS'callRegionsBed'
p34
NsS'mantaPloidyFilter'
p35
S'/PHShome/xd010/libexec/ploidyFilter.py'
p36
sS'mantaSortBam'
p37
S'/PHShome/xd010/libexec/sortBam.py'
p38
sS'samtoolsBin'
p39
S'/PHShome/xd010/libexec/samtools'
p40
sS'useExistingChromDepths'
p41
I00
sS'vcfCmdlineSwapper'
p42
S'/PHShome/xd010/libexec/vcfCmdlineSwapper.py'
p43
sS'mantaExtraSmallVcf'
p44
S'/PHShome/xd010/libexec/extractSmallIndelCandidates.py'
p45
sS'mantaMergeBam'
p46
S'/PHShome/xd010/libexec/mergeBam.py'
p47
sS'mantaStatsSummaryBin'
p48
S'/PHShome/xd010/libexec/SummarizeAlignmentStats'
p49
sS'minScoredVariantSize'
p50
S'50'
p51
sS'mantaGraphStatsBin'
p52
S'/PHShome/xd010/libexec/SummarizeSVLoci'
p53
sS'mantaGraphCheckBin'
p54
S'/PHShome/xd010/libexec/CheckSVLoci'
p55
sS'minSomaticScore'
p56
S'10'
p57
sS'minCandidateVariantSize'
p58
S'8'
p59
sS'mantaGraphMergeBin'
p60
S'/PHShome/xd010/libexec/MergeSVLoci'
p61
sS'genomeRegionList'
p62
(lp63
(dp64
S'start'
p65
I107652000
sS'end'
p66
I107655000
sS'chrom'
p67
g59
sa(dp68
g65
I94974000
sg66
I94989000
sg67
S'11'
p69
sasS'getChromDepthBin'
p70
S'/PHShome/xd010/libexec/GetChromDepth'
p71
sS'minPassDiploidGTScore'
p72
S'15'
p73
sS'graphNodeMaxEdgeCount'
p74
S'10'
p75
sS'enableRemoteReadRetrievalForInsertionsInCancerCallingModes'
p76
S'0'
p77
sS'mergeChromDepth'
p78
S'/PHShome/xd010/libexec/mergeChromDepth.py'
p79
sS'isUnstrandedRNA'
p80
I00
sS'catScript'
p81
S'/PHShome/xd010/libexec/cat.py'
p82
sS'runDir'
p83
S'/data/neurogen/pipeline/DNAseq/libs/MantaDemoAnalysis'
p84
sS'hyGenLocalMemMb'
p85
F1536.0
sS'enableRemoteReadRetrievalForInsertionsInGermlineCallingModes'
p86
S'1'
p87
sS'nonlocalWorkBins'
p88
I4
sS'mantaGraphBin'
p89
S'/PHShome/xd010/libexec/EstimateSVLoci'
p90
sS'regionStrList'
p91
(lp92
S'8:107652000-107655000'
p93
aS'11:94974000-94989000'
p94
asS'mergeMemMb'
p95
I4096
sS'isGenerateSupportBam'
p96
I00
sS'minPassDiploidVariantScore'
p97
S'20'
p98
sS'callMemMbOverride'
p99
NsS'userConfigPath'
p100
NsS'minEdgeObservations'
p101
S'3'
p102
sS'minDiploidVariantScore'
p103
S'10'
p104
sS'minCandidateSpanningCount'
p105
g102
sS'mantaStatsBin'
p106
S'/PHShome/xd010/libexec/GetAlignmentStats'
p107
sS'mantaHyGenBin'
p108
S'/PHShome/xd010/libexec/GenerateSVCandidates'
p109
sS'htsfileBin'
p110
S'/PHShome/xd010/libexec/htsfile'
p111
sS'mantaStatsMergeBin'
p112
S'/PHShome/xd010/libexec/MergeEdgeStats'
p113
sS'bgzipBin'
p114
S'/PHShome/xd010/libexec/bgzip'
p115
sS'configCommandLine'
p116
(lp117
S'/PHShome/xd010/bin/configManta.py'
p118
aS'--normalBam=/PHShome/xd010/share/demo/manta/data/HCC1954.NORMAL.30x.compare.COST16011_region.bam'
p119
aS'--tumorBam=/PHShome/xd010/share/demo/manta/data/G15512.HCC1954.1.COST16011_region.bam'
p120
aS'--referenceFasta=/PHShome/xd010/share/demo/manta/data/Homo_sapiens_assembly19.COST16011_region.fa'
p121
aS'--region=8:107652000-107655000'
p122
aS'--region=11:94974000-94989000'
p123
aS'--candidateBins=4'
p124
aS'--exome'
p125
aS'--runDir=MantaDemoAnalysis'
p126
asS'isOutputContig'
p127
I00
ss.