(dp0
S'isShellCmd'
p1
I00
sS'cmd'
p2
(lp3
S'/PHShome/xd010/libexec/MergeEdgeStats'
p4
aS'--stats-file-list'
p5
aS'/data/neurogen/pipeline/DNAseq/libs/MantaDemoAnalysis/workspace/svHyGen/list.edgeStats.txt'
p6
aS'--output-file'
p7
aS'/data/neurogen/pipeline/DNAseq/libs/MantaDemoAnalysis/results/stats/svCandidateGenerationStats.xml'
p8
aS'--report-file'
p9
aS'/data/neurogen/pipeline/DNAseq/libs/MantaDemoAnalysis/results/stats/svCandidateGenerationStats.tsv'
p10
asS'errFile'
p11
S'/data/neurogen/pipeline/DNAseq/libs/MantaDemoAnalysis/workspace/pyflow.data/logs/pyflow_tasks_stderr_log.txt'
p12
sS'outFile'
p13
S'/data/neurogen/pipeline/DNAseq/libs/MantaDemoAnalysis/workspace/pyflow.data/logs/pyflow_tasks_stdout_log.txt'
p14
sS'env'
p15
NsS'nCores'
p16
I1
sS'cwd'
p17
S''
p18
s.